; Function Attrs: mustprogress nofree norecurse nosync nounwind willreturn memory(argmem: read) uwtable
define dso_local i8 @_ZNK9V3Options15timeComputePrecERK10VTimescale(ptr noundef nonnull readonly align 8 captures(none) dereferenceable(1720) %0, ptr noundef nonnull readonly align 1 captures(none) dereferenceable(1) %1) local_unnamed_addr #21 align 2 {
  %3 = getelementptr inbounds nuw i8, ptr %0, i64 994
  %.sroa.0.0.copyload.i = load i8, ptr %3, align 2, !tbaa !100
  %4 = icmp eq i8 %.sroa.0.0.copyload.i, 18
  br i1 %4, label %5, label %10

5:                                                ; preds = %2
  %6 = load i8, ptr %1, align 1, !tbaa !14
  %7 = icmp eq i8 %6, 18
  br i1 %7, label %8, label %10

8:                                                ; preds = %5
  %9 = getelementptr inbounds nuw i8, ptr %0, i64 992
  %.sroa.0.0.copyload.i4 = load i8, ptr %9, align 8, !tbaa !100
  br label %10

10:                                               ; preds = %5, %2, %8
  %.sroa.0.0 = phi i8 [ %.sroa.0.0.copyload.i4, %8 ], [ %.sroa.0.0.copyload.i, %2 ], [ %6, %5 ]
  ret i8 %.sroa.0.0
}